target datalayout = "e-m:e-p270:32:32-p271:32:32-p272:64:64-i64:64-i128:128-f80:128-n8:16:32:64-S128"
target triple = "x86_64-pc-linux-gnu"

%struct.mz_zip_archive_tag = type { i64, i64, i32, i32, i32, ptr, ptr, ptr, ptr, ptr, ptr, ptr, ptr }
%struct.mz_zip_internal_state_tag = type { %struct.mz_zip_array, %struct.mz_zip_array, %struct.mz_zip_array, ptr, ptr, i64, i64 }
%struct.mz_zip_array = type { ptr, i64, i64, i32 }

; Function Attrs: mustprogress uwtable
define i32 @mz_zip_reader_extract_to_mem(ptr noundef %0, i32 noundef %1, ptr noundef %2, i64 noundef %3, i32 noundef %4) #5 {
  %6 = alloca ptr, align 8
  %7 = alloca i32, align 4
  %8 = alloca ptr, align 8
  %9 = alloca i64, align 8
  %10 = alloca i32, align 4
  store ptr %0, ptr %6, align 8
  store i32 %1, ptr %7, align 4
  store ptr %2, ptr %8, align 8
  store i64 %3, ptr %9, align 8
  store i32 %4, ptr %10, align 4
  %11 = load ptr, ptr %6, align 8
  %12 = load i32, ptr %7, align 4
  %13 = load ptr, ptr %8, align 8
  %14 = load i64, ptr %9, align 8
  %15 = load i32, ptr %10, align 4
  %16 = call i32 @mz_zip_reader_extract_to_mem_no_alloc(ptr noundef %11, i32 noundef %12, ptr noundef %13, i64 noundef %14, i32 noundef %15, ptr noundef null, i64 noundef 0)
  ret i32 %16
}

; Function Attrs: mustprogress uwtable
define ptr @mz_zip_reader_extract_to_heap(ptr noundef %0, i32 noundef %1, ptr noundef %2, i32 noundef %3) #5 {
  %5 = alloca ptr, align 8
  %6 = alloca ptr, align 8
  %7 = alloca i32, align 4
  %8 = alloca ptr, align 8
  %9 = alloca ptr, align 8
  %10 = alloca i32, align 4
  %11 = alloca ptr, align 8
  %12 = alloca i32, align 4
  %13 = alloca i64, align 8
  %14 = alloca i64, align 8
  %15 = alloca i64, align 8
  %16 = alloca ptr, align 8
  %17 = alloca ptr, align 8
  store ptr %0, ptr %9, align 8
  store i32 %1, ptr %10, align 4
  store ptr %2, ptr %11, align 8
  store i32 %3, ptr %12, align 4
  %18 = load ptr, ptr %9, align 8
  %19 = load i32, ptr %10, align 4
  store ptr %18, ptr %6, align 8
  store i32 %19, ptr %7, align 4
  %20 = load ptr, ptr %6, align 8
  %21 = icmp ne ptr %20, null
  br i1 %21, label %22, label %38

22:                                               ; preds = %4
  %23 = load ptr, ptr %6, align 8
  %24 = getelementptr inbounds %struct.mz_zip_archive_tag, ptr %23, i32 0, i32 12
  %25 = load ptr, ptr %24, align 8
  %26 = icmp ne ptr %25, null
  br i1 %26, label %27, label %38

27:                                               ; preds = %22
  %28 = load i32, ptr %7, align 4
  %29 = load ptr, ptr %6, align 8
  %30 = getelementptr inbounds %struct.mz_zip_archive_tag, ptr %29, i32 0, i32 2
  %31 = load i32, ptr %30, align 8
  %32 = icmp uge i32 %28, %31
  br i1 %32, label %38, label %33

33:                                               ; preds = %27
  %34 = load ptr, ptr %6, align 8
  %35 = getelementptr inbounds %struct.mz_zip_archive_tag, ptr %34, i32 0, i32 3
  %36 = load i32, ptr %35, align 4
  %37 = icmp ne i32 %36, 1
  br i1 %37, label %38, label %39

38:                                               ; preds = %33, %27, %22, %4
  store ptr null, ptr %5, align 8
  br label %55

39:                                               ; preds = %33
  %40 = load ptr, ptr %6, align 8
  %41 = getelementptr inbounds %struct.mz_zip_archive_tag, ptr %40, i32 0, i32 12
  %42 = load ptr, ptr %41, align 8
  %43 = load ptr, ptr %42, align 8
  %44 = load ptr, ptr %6, align 8
  %45 = getelementptr inbounds %struct.mz_zip_archive_tag, ptr %44, i32 0, i32 12
  %46 = load ptr, ptr %45, align 8
  %47 = getelementptr inbounds %struct.mz_zip_internal_state_tag, ptr %46, i32 0, i32 1
  %48 = load ptr, ptr %47, align 8
  %49 = load i32, ptr %7, align 4
  %50 = zext i32 %49 to i64
  %51 = getelementptr inbounds i32, ptr %48, i64 %50
  %52 = load i32, ptr %51, align 4
  %53 = zext i32 %52 to i64
  %54 = getelementptr inbounds i8, ptr %43, i64 %53
  store ptr %54, ptr %5, align 8
  br label %55

55:                                               ; preds = %39, %38
  %56 = load ptr, ptr %5, align 8
  store ptr %56, ptr %16, align 8
  %57 = load ptr, ptr %11, align 8
  %58 = icmp ne ptr %57, null
  br i1 %58, label %59, label %61

59:                                               ; preds = %55
  %60 = load ptr, ptr %11, align 8
  store i64 0, ptr %60, align 8
  br label %61

61:                                               ; preds = %59, %55
  %62 = load ptr, ptr %16, align 8
  %63 = icmp ne ptr %62, null
  br i1 %63, label %65, label %64

64:                                               ; preds = %61
  store ptr null, ptr %8, align 8
  br label %117

65:                                               ; preds = %61
  %66 = load ptr, ptr %16, align 8
  %67 = getelementptr inbounds i8, ptr %66, i64 20
  %68 = load i32, ptr %67, align 4
  %69 = zext i32 %68 to i64
  store i64 %69, ptr %13, align 8
  %70 = load ptr, ptr %16, align 8
  %71 = getelementptr inbounds i8, ptr %70, i64 24
  %72 = load i32, ptr %71, align 4
  %73 = zext i32 %72 to i64
  store i64 %73, ptr %14, align 8
  %74 = load i32, ptr %12, align 4
  %75 = and i32 %74, 1024
  %76 = icmp ne i32 %75, 0
  br i1 %76, label %77, label %79

77:                                               ; preds = %65
  %78 = load i64, ptr %13, align 8
  br label %81

79:                                               ; preds = %65
  %80 = load i64, ptr %14, align 8
  br label %81

81:                                               ; preds = %79, %77
  %82 = phi i64 [ %78, %77 ], [ %80, %79 ]
  store i64 %82, ptr %15, align 8
  %83 = load ptr, ptr %9, align 8
  %84 = getelementptr inbounds %struct.mz_zip_archive_tag, ptr %83, i32 0, i32 5
  %85 = load ptr, ptr %84, align 8
  %86 = load ptr, ptr %9, align 8
  %87 = getelementptr inbounds %struct.mz_zip_archive_tag, ptr %86, i32 0, i32 8
  %88 = load ptr, ptr %87, align 8
  %89 = load i64, ptr %15, align 8
  %90 = call noundef ptr %85(ptr noundef %88, i64 noundef 1, i64 noundef %89)
  store ptr %90, ptr %17, align 8
  %91 = icmp eq ptr null, %90
  br i1 %91, label %92, label %93

92:                                               ; preds = %81
  store ptr null, ptr %8, align 8
  br label %117

93:                                               ; preds = %81
  %94 = load ptr, ptr %9, align 8
  %95 = load i32, ptr %10, align 4
  %96 = load ptr, ptr %17, align 8
  %97 = load i64, ptr %15, align 8
  %98 = load i32, ptr %12, align 4
  %99 = call i32 @mz_zip_reader_extract_to_mem(ptr noundef %94, i32 noundef %95, ptr noundef %96, i64 noundef %97, i32 noundef %98)
  %100 = icmp ne i32 %99, 0
  br i1 %100, label %109, label %101

101:                                              ; preds = %93
  %102 = load ptr, ptr %9, align 8
  %103 = getelementptr inbounds %struct.mz_zip_archive_tag, ptr %102, i32 0, i32 6
  %104 = load ptr, ptr %103, align 8
  %105 = load ptr, ptr %9, align 8
  %106 = getelementptr inbounds %struct.mz_zip_archive_tag, ptr %105, i32 0, i32 8
  %107 = load ptr, ptr %106, align 8
  %108 = load ptr, ptr %17, align 8
  call void %104(ptr noundef %107, ptr noundef %108)
  store ptr null, ptr %8, align 8
  br label %117

109:                                              ; preds = %93
  %110 = load ptr, ptr %11, align 8
  %111 = icmp ne ptr %110, null
  br i1 %111, label %112, label %115

112:                                              ; preds = %109
  %113 = load i64, ptr %15, align 8
  %114 = load ptr, ptr %11, align 8
  store i64 %113, ptr %114, align 8
  br label %115

115:                                              ; preds = %112, %109
  %116 = load ptr, ptr %17, align 8
  store ptr %116, ptr %8, align 8
  br label %117

117:                                              ; preds = %115, %101, %92, %64
  %118 = load ptr, ptr %8, align 8
  ret ptr %118
}