; Function Attrs: mustprogress uwtable
define noundef ptr @mz_zip_reader_extract_to_heap(ptr noundef %0, i32 noundef %1, ptr noundef writeonly %2, i32 noundef %3) local_unnamed_addr #9 {
  %.not = icmp eq ptr %0, null
  br i1 %.not, label %23, label %5

5:                                                ; preds = %4
  %6 = getelementptr inbounds i8, ptr %0, i64 88
  %7 = load ptr, ptr %6, align 8
  %.not40 = icmp eq ptr %7, null
  br i1 %.not40, label %23, label %8

8:                                                ; preds = %5
  %9 = getelementptr inbounds i8, ptr %0, i64 16
  %10 = load i32, ptr %9, align 8
  %.not41 = icmp ugt i32 %10, %1
  br i1 %.not41, label %11, label %23

11:                                               ; preds = %8
  %12 = getelementptr inbounds i8, ptr %0, i64 20
  %13 = load i32, ptr %12, align 4
  %.not42 = icmp eq i32 %13, 1
  br i1 %.not42, label %14, label %23

14:                                               ; preds = %11
  %15 = load ptr, ptr %7, align 8
  %16 = getelementptr inbounds i8, ptr %7, i64 32
  %17 = load ptr, ptr %16, align 8
  %18 = zext i32 %1 to i64
  %19 = getelementptr inbounds i32, ptr %17, i64 %18
  %20 = load i32, ptr %19, align 4
  %21 = zext i32 %20 to i64
  %22 = getelementptr inbounds i8, ptr %15, i64 %21
  br label %23

23:                                               ; preds = %4, %5, %8, %11, %14
  %.0 = phi ptr [ %22, %14 ], [ null, %11 ], [ null, %8 ], [ null, %5 ], [ null, %4 ]
  %.not43 = icmp eq ptr %2, null
  br i1 %.not43, label %25, label %24

24:                                               ; preds = %23
  store i64 0, ptr %2, align 8
  br label %25

25:                                               ; preds = %24, %23
  %.not44 = icmp eq ptr %.0, null
  br i1 %.not44, label %47, label %26

26:                                               ; preds = %25
  %27 = getelementptr inbounds i8, ptr %.0, i64 20
  %28 = load i32, ptr %27, align 4
  %29 = getelementptr inbounds i8, ptr %.0, i64 24
  %30 = load i32, ptr %29, align 4
  %31 = and i32 %3, 1024
  %.not45 = icmp eq i32 %31, 0
  %.v = select i1 %.not45, i32 %30, i32 %28
  %32 = zext i32 %.v to i64
  %33 = getelementptr inbounds i8, ptr %0, i64 32
  %34 = load ptr, ptr %33, align 8
  %35 = getelementptr inbounds i8, ptr %0, i64 56
  %36 = load ptr, ptr %35, align 8
  %37 = tail call noundef ptr %34(ptr noundef %36, i64 noundef 1, i64 noundef %32)
  %38 = icmp eq ptr %37, null
  br i1 %38, label %47, label %39

39:                                               ; preds = %26
  %40 = tail call i32 @mz_zip_reader_extract_to_mem_no_alloc(ptr noundef nonnull %0, i32 noundef %1, ptr noundef nonnull %37, i64 noundef %32, i32 noundef %3, ptr noundef null, i64 noundef 0), !range !16
  %.not46 = icmp eq i32 %40, 0
  br i1 %.not46, label %41, label %45

41:                                               ; preds = %39
  %42 = getelementptr inbounds i8, ptr %0, i64 40
  %43 = load ptr, ptr %42, align 8
  %44 = load ptr, ptr %35, align 8
  tail call void %43(ptr noundef %44, ptr noundef nonnull %37)
  br label %47

45:                                               ; preds = %39
  br i1 %.not43, label %47, label %46

46:                                               ; preds = %45
  store i64 %32, ptr %2, align 8
  br label %47

47:                                               ; preds = %45, %46, %26, %25, %41
  %.034 = phi ptr [ null, %41 ], [ null, %25 ], [ null, %26 ], [ %37, %46 ], [ %37, %45 ]
  ret ptr %.034
}